Certificate:
    Data:
        Version: 3 (0x2)
        Serial Number: 6 (0x6)
        Signature Algorithm: sha1WithRSAEncryption
        Issuer: C=IN, ST=TN, L=Gowrivakkam, O=UNLEASH NETWORKS, OU=TRISUL TESTING, CN=unleashnetworks.com/emailAddress=info@unleashnetworks.com
        Validity
            Not Before: Feb 20 09:49:38 2014 GMT
            Not After : Feb 20 09:49:38 2015 GMT
        Subject: C=IN, ST=TN, O=Unleash Networks, OU=TRISUL CLIENT TEST, CN=demo.trisul.org/emailAddress=info@unleashnetworks.com
        Subject Public Key Info:
            Public Key Algorithm: rsaEncryption
                Public-Key: (1024 bit)
                Modulus:
                    00:bd:83:3b:e8:fb:87:40:0f:bb:9a:8f:12:c2:fc:
                    56:6f:81:4c:a4:89:99:ba:bb:f1:83:6e:50:ae:31:
                    b5:67:23:d3:3f:8e:2b:f1:cb:97:c7:8c:80:94:2a:
                    48:95:d6:b2:f4:46:88:58:ea:06:8d:5c:da:51:e1:
                    8c:b4:bd:f9:35:fc:4c:0c:25:f7:fe:3f:61:e5:42:
                    ab:34:68:4b:42:60:2d:5d:f9:ed:a9:b4:88:26:b6:
                    8f:c5:ca:78:ec:7d:4b:76:98:1f:7a:4a:12:c5:c0:
                    18:f5:d9:0d:ac:2a:af:ef:1c:65:48:1a:c2:bb:52:
                    b2:07:0d:87:16:7c:e7:e0:47
                Exponent: 65537 (0x10001)
        X509v3 extensions:
            X509v3 Basic Constraints: 
                CA:FALSE
            Netscape Comment: 
                OpenSSL Generated Certificate For Trisul PKI
            X509v3 Subject Key Identifier: 
                4A:EA:49:8F:9C:2D:B9:02:91:4C:4E:BB:EC:17:A7:B2:46:C6:A0:0E
            X509v3 Authority Key Identifier: 
                keyid:99:B6:6A:A4:7A:E7:C6:6F:ED:D3:6A:47:73:2A:99:60:5E:A5:D4:18

    Signature Algorithm: sha1WithRSAEncryption
        0b:e4:c0:7a:2d:7a:aa:0d:23:f4:75:8f:15:df:d8:e2:10:f3:
        dc:22:03:52:0a:fe:80:94:54:ca:13:73:c7:93:98:fd:46:62:
        d3:f7:c7:c5:ac:ca:d9:3a:82:f3:db:ad:f3:0f:81:fb:4f:74:
        51:17:e4:2f:c7:85:5c:f6:b2:63:f6:6f:27:2f:17:03:80:a6:
        d1:cc:b4:fc:56:13:57:46:92:40:b0:5d:03:61:ba:e2:12:35:
        3b:85:b4:f5:22:4f:53:0a:69:b7:c1:15:6a:a4:34:4e:d0:cf:
        5e:7a:1e:8c:1d:f5:18:b8:f2:38:69:81:1f:62:de:ed:1a:d4:
        ac:35:6e:b1:52:7f:af:cf:aa:b4:a1:fb:f0:af:31:ff:b7:6c:
        e0:c0:6d:a8:12:a0:af:27:73:53:94:a5:b2:59:c4:c9:88:92:
        93:30:ab:9c:eb:20:56:62:1e:af:2d:34:9b:7d:de:e8:69:bf:
        6f:a9:c4:59:f1:cb:98:41:c0:69:61:13:3a:ee:e8:96:e8:a1:
        75:bb:12:ed:bb:71:98:89:ee:ef:6c:75:ae:82:b3:a2:52:25:
        4a:03:3d:f7:53:51:8c:ba:d6:4b:0c:06:98:5a:1f:8e:87:72:
        77:47:fe:5a:13:2a:ac:01:a3:89:fc:56:e5:71:af:b2:05:d5:
        bb:df:ee:67
-----BEGIN CERTIFICATE-----
MIIDxTCCAq2gAwIBAgIBBjANBgkqhkiG9w0BAQUFADCBqzELMAkGA1UEBhMCSU4x
CzAJBgNVBAgTAlROMRQwEgYDVQQHEwtHb3dyaXZha2thbTEZMBcGA1UEChMQVU5M
RUFTSCBORVRXT1JLUzEXMBUGA1UECxMOVFJJU1VMIFRFU1RJTkcxHDAaBgNVBAMT
E3VubGVhc2huZXR3b3Jrcy5jb20xJzAlBgkqhkiG9w0BCQEWGGluZm9AdW5sZWFz
aG5ldHdvcmtzLmNvbTAeFw0xNDAyMjAwOTQ5MzhaFw0xNTAyMjAwOTQ5MzhaMIGV
MQswCQYDVQQGEwJJTjELMAkGA1UECBMCVE4xGTAXBgNVBAoTEFVubGVhc2ggTmV0
d29ya3MxGzAZBgNVBAsTElRSSVNVTCBDTElFTlQgVEVTVDEYMBYGA1UEAxMPZGVt
by50cmlzdWwub3JnMScwJQYJKoZIhvcNAQkBFhhpbmZvQHVubGVhc2huZXR3b3Jr
cy5jb20wgZ8wDQYJKoZIhvcNAQEBBQADgY0AMIGJAoGBAL2DO+j7h0APu5qPEsL8
Vm+BTKSJmbq78YNuUK4xtWcj0z+OK/HLl8eMgJQqSJXWsvRGiFjqBo1c2lHhjLS9
+TX8TAwl9/4/YeVCqzRoS0JgLV357am0iCa2j8XKeOx9S3aYH3pKEsXAGPXZDawq
r+8cZUgawrtSsgcNhxZ85+BHAgMBAAGjgYswgYgwCQYDVR0TBAIwADA7BglghkgB
hvhCAQ0ELhYsT3BlblNTTCBHZW5lcmF0ZWQgQ2VydGlmaWNhdGUgRm9yIFRyaXN1
bCBQS0kwHQYDVR0OBBYEFErqSY+cLbkCkUxOu+wXp7JGxqAOMB8GA1UdIwQYMBaA
FJm2aqR658Zv7dNqR3MqmWBepdQYMA0GCSqGSIb3DQEBBQUAA4IBAQAL5MB6LXqq
DSP0dY8V39jiEPPcIgNSCv6AlFTKE3PHk5j9RmLT98fFrMrZOoLz263zD4H7T3RR
F+Qvx4Vc9rJj9m8nLxcDgKbRzLT8VhNXRpJAsF0DYbriEjU7hbT1Ik9TCmm3wRVq
pDRO0M9eeh6MHfUYuPI4aYEfYt7tGtSsNW6xUn+vz6q0ofvwrzH/t2zgwG2oEqCv
J3NTlKWyWcTJiJKTMKuc6yBWYh6vLTSbfd7oab9vqcRZ8cuYQcBpYRM67uiW6KF1
uxLtu3GYie7vbHWugrOiUiVKAz33U1GMutZLDAaYWh+Oh3J3R/5aEyqsAaOJ/Fbl
ca+yBdW73+5n
-----END CERTIFICATE-----
